target datalayout = "e-m:e-p270:32:32-p271:32:32-p272:64:64-i64:64-i128:128-f80:128-n8:16:32:64-S128"
target triple = "x86_64-pc-linux-gnu"

%"class.doctest::String" = type { %union.anon.7 }
%union.anon.7 = type { %"struct.doctest::String::view", [8 x i8] }
%"struct.doctest::String::view" = type { ptr, i32, i32 }
%"struct.doctest::ContextOptions" = type <{ ptr, %"class.doctest::String", ptr, %"class.doctest::String", %"class.doctest::String", i32, i32, i32, i32, i32, i8, i8, i8, i8, i8, i8, i8, i8, i8, i8, i8, i8, i8, i8, i8, i8, i8, i8, i8, i8, i8, i8, i8, i8, i8, i8, i8, i8 }>
%"class.doctest::Context" = type { ptr }

@_ZN7doctest6StringD1Ev = dso_local unnamed_addr alias void (ptr), ptr @_ZN7doctest6StringD2Ev
@_ZN7doctest6StringC1EPKc = dso_local unnamed_addr alias void (ptr, ptr), ptr @_ZN7doctest6StringC2EPKc

; Function Attrs: mustprogress nounwind uwtable
define dso_local void @_ZN7doctest6String7setLastEj(ptr noundef nonnull align 8 dereferenceable(24) %0, i32 noundef %1) #1 align 2 {
  %3 = alloca ptr, align 8
  %4 = alloca i32, align 4
  store ptr %0, ptr %3, align 8, !tbaa !59
  store i32 %1, ptr %4, align 4, !tbaa !4
  %5 = load ptr, ptr %3, align 8
  %6 = load i32, ptr %4, align 4, !tbaa !4
  %7 = trunc i32 %6 to i8
  %8 = getelementptr inbounds nuw %"class.doctest::String", ptr %5, i32 0, i32 0
  %9 = getelementptr inbounds nuw [24 x i8], ptr %8, i64 0, i64 23
  store i8 %7, ptr %9, align 1, !tbaa !55
  ret void
}

; Function Attrs: mustprogress nounwind uwtable
define linkonce_odr dso_local noundef zeroext i1 @_ZNK7doctest6String9isOnStackEv(ptr noundef nonnull align 8 dereferenceable(24) %0) #1 comdat align 2 {
  %2 = alloca ptr, align 8
  store ptr %0, ptr %2, align 8, !tbaa !59
  %3 = load ptr, ptr %2, align 8
  %4 = getelementptr inbounds nuw %"class.doctest::String", ptr %3, i32 0, i32 0
  %5 = getelementptr inbounds nuw [24 x i8], ptr %4, i64 0, i64 23
  %6 = load i8, ptr %5, align 1, !tbaa !55
  %7 = sext i8 %6 to i32
  %8 = and i32 %7, 128
  %9 = icmp eq i32 %8, 0
  ret i1 %9
}

; Function Attrs: mustprogress nounwind uwtable
define dso_local noundef nonnull align 8 dereferenceable(24) ptr @_ZN7doctest6StringaSEOS0_(ptr noundef nonnull align 8 dereferenceable(24) %0, ptr noundef nonnull align 8 dereferenceable(24) %1) #1 align 2 {
  %3 = alloca ptr, align 8
  %4 = alloca ptr, align 8
  store ptr %0, ptr %3, align 8, !tbaa !59
  store ptr %1, ptr %4, align 8, !tbaa !59
  %5 = load ptr, ptr %3, align 8
  %6 = load ptr, ptr %4, align 8, !tbaa !59
  %7 = icmp ne ptr %5, %6
  br i1 %7, label %8, label %27

8:                                                ; preds = %2
  %9 = call noundef zeroext i1 @_ZNK7doctest6String9isOnStackEv(ptr noundef nonnull align 8 dereferenceable(24) %5) #7
  br i1 %9, label %17, label %10

10:                                               ; preds = %8
  %11 = getelementptr inbounds nuw %"class.doctest::String", ptr %5, i32 0, i32 0
  %12 = getelementptr inbounds nuw %"struct.doctest::String::view", ptr %11, i32 0, i32 0
  %13 = load ptr, ptr %12, align 8, !tbaa !55
  %14 = icmp eq ptr %13, null
  br i1 %14, label %16, label %15

15:                                               ; preds = %10
  call void @_ZdaPv(ptr noundef %13) #31
  br label %16

16:                                               ; preds = %15, %10
  br label %17

17:                                               ; preds = %16, %8
  %18 = getelementptr inbounds nuw %"class.doctest::String", ptr %5, i32 0, i32 0
  %19 = getelementptr inbounds [24 x i8], ptr %18, i64 0, i64 0
  %20 = load ptr, ptr %4, align 8, !tbaa !59
  %21 = getelementptr inbounds nuw %"class.doctest::String", ptr %20, i32 0, i32 0
  %22 = getelementptr inbounds [24 x i8], ptr %21, i64 0, i64 0
  call void @llvm.memcpy.p0.p0.i64(ptr align 8 %19, ptr align 8 %22, i64 24, i1 false)
  %23 = load ptr, ptr %4, align 8, !tbaa !59
  %24 = getelementptr inbounds nuw %"class.doctest::String", ptr %23, i32 0, i32 0
  %25 = getelementptr inbounds [24 x i8], ptr %24, i64 0, i64 0
  store i8 0, ptr %25, align 8, !tbaa !55
  %26 = load ptr, ptr %4, align 8, !tbaa !59
  call void @_ZN7doctest6String7setLastEj(ptr noundef nonnull align 8 dereferenceable(24) %26, i32 noundef 23) #7
  br label %27

27:                                               ; preds = %17, %2
  ret ptr %5
}

; Function Attrs: mustprogress uwtable
define dso_local void @_ZN7doctest7Context16applyCommandLineEiPKPKc(ptr noundef nonnull align 8 dereferenceable(8) %0, i32 noundef %1, ptr noundef %2) #8 align 2 {
  %4 = alloca ptr, align 8
  %5 = alloca i32, align 4
  %6 = alloca ptr, align 8
  %7 = alloca %"class.doctest::String", align 8
  store ptr %0, ptr %4, align 8, !tbaa !306
  store i32 %1, ptr %5, align 4, !tbaa !4
  store ptr %2, ptr %6, align 8, !tbaa !308
  %8 = load ptr, ptr %4, align 8
  %9 = load i32, ptr %5, align 4, !tbaa !4
  %10 = load ptr, ptr %6, align 8, !tbaa !308
  call void @_ZN7doctest7Context9parseArgsEiPKPKcb(ptr noundef nonnull align 8 dereferenceable(8) %8, i32 noundef %9, ptr noundef %10, i1 noundef zeroext false)
  %11 = load i32, ptr %5, align 4, !tbaa !4
  %12 = icmp ne i32 %11, 0
  br i1 %12, label %13, label %21

13:                                               ; preds = %3
  call void @llvm.lifetime.start.p0(i64 24, ptr %7) #7
  %14 = load ptr, ptr %6, align 8, !tbaa !308
  %15 = getelementptr inbounds ptr, ptr %14, i64 0
  %16 = load ptr, ptr %15, align 8, !tbaa !14
  call void @_ZN7doctest6StringC1EPKc(ptr noundef nonnull align 8 dereferenceable(24) %7, ptr noundef %16)
  %17 = getelementptr inbounds nuw %"class.doctest::Context", ptr %8, i32 0, i32 0
  %18 = load ptr, ptr %17, align 8, !tbaa !310
  %19 = getelementptr inbounds nuw %"struct.doctest::ContextOptions", ptr %18, i32 0, i32 1
  %20 = call noundef nonnull align 8 dereferenceable(24) ptr @_ZN7doctest6StringaSEOS0_(ptr noundef nonnull align 8 dereferenceable(24) %19, ptr noundef nonnull align 8 dereferenceable(24) %7) #7
  call void @_ZN7doctest6StringD1Ev(ptr noundef nonnull align 8 dereferenceable(24) %7) #7
  call void @llvm.lifetime.end.p0(i64 24, ptr %7) #7
  br label %21

21:                                               ; preds = %13, %3
  ret void
}