; Function Attrs: mustprogress uwtable
define dso_local void @_ZN7doctest7Context16applyCommandLineEiPKPKc(ptr noundef nonnull readonly align 8 captures(none) dereferenceable(8) %0, i32 noundef %1, ptr noundef %2) local_unnamed_addr #8 align 2 {
  %4 = alloca %"class.doctest::String", align 8
  tail call void @_ZN7doctest7Context9parseArgsEiPKPKcb(ptr noundef nonnull align 8 dereferenceable(8) %0, i32 noundef %1, ptr noundef %2, i1 noundef zeroext false)
  %.not = icmp eq i32 %1, 0
  br i1 %.not, label %34, label %5

5:                                                ; preds = %3
  call void @llvm.lifetime.start.p0(i64 24, ptr nonnull %4) #49
  %6 = load ptr, ptr %2, align 8, !tbaa !5
  %7 = tail call i64 @strlen(ptr noundef nonnull readonly dereferenceable(1) %6) #52
  %8 = trunc i64 %7 to i32
  %9 = icmp ult i32 %8, 24
  br i1 %9, label %10, label %16

10:                                               ; preds = %5
  %11 = and i64 %7, 31
  %12 = getelementptr inbounds nuw [24 x i8], ptr %4, i64 0, i64 %11
  store i8 0, ptr %12, align 1, !tbaa !38
  %13 = trunc i64 %7 to i8
  %14 = sub nuw nsw i8 23, %13
  %15 = getelementptr inbounds nuw i8, ptr %4, i64 23
  store i8 %14, ptr %15, align 1, !tbaa !38
  br label %_ZN7doctest6StringC2EPKc.exit

16:                                               ; preds = %5
  %17 = getelementptr inbounds nuw i8, ptr %4, i64 23
  store i8 -128, ptr %17, align 1, !tbaa !38
  %18 = getelementptr inbounds nuw i8, ptr %4, i64 8
  store i32 %8, ptr %18, align 8, !tbaa !38
  %19 = add i32 %8, 1
  %20 = getelementptr inbounds nuw i8, ptr %4, i64 12
  store i32 %19, ptr %20, align 4, !tbaa !38
  %21 = zext i32 %19 to i64
  %22 = tail call noalias noundef nonnull ptr @_Znam(i64 noundef %21) #51
  store ptr %22, ptr %4, align 8, !tbaa !38
  %23 = and i64 %7, 4294967295
  %24 = getelementptr inbounds nuw i8, ptr %22, i64 %23
  store i8 0, ptr %24, align 1, !tbaa !38
  br label %_ZN7doctest6StringC2EPKc.exit

_ZN7doctest6StringC2EPKc.exit:                    ; preds = %10, %16
  %.pre-phi.i.i = phi i64 [ %11, %10 ], [ %23, %16 ]
  %.0.i.i.i = phi ptr [ %4, %10 ], [ %22, %16 ]
  call void @llvm.memcpy.p0.p0.i64(ptr nonnull align 1 %.0.i.i.i, ptr nonnull readonly align 1 %6, i64 %.pre-phi.i.i, i1 false)
  %25 = load ptr, ptr %0, align 8, !tbaa !323
  %26 = getelementptr inbounds nuw i8, ptr %25, i64 8
  %27 = getelementptr inbounds nuw i8, ptr %25, i64 31
  %28 = load i8, ptr %27, align 1, !tbaa !38
  %29 = icmp sgt i8 %28, -1
  br i1 %29, label %_ZN7doctest6StringD2Ev.exit, label %30

30:                                               ; preds = %_ZN7doctest6StringC2EPKc.exit
  %31 = load ptr, ptr %26, align 8, !tbaa !38
  %32 = icmp eq ptr %31, null
  br i1 %32, label %_ZN7doctest6StringD2Ev.exit, label %33

33:                                               ; preds = %30
  tail call void @_ZdaPv(ptr noundef nonnull %31) #48
  br label %_ZN7doctest6StringD2Ev.exit

_ZN7doctest6StringD2Ev.exit:                      ; preds = %_ZN7doctest6StringC2EPKc.exit, %30, %33
  call void @llvm.memcpy.p0.p0.i64(ptr noundef nonnull align 8 dereferenceable(24) %26, ptr noundef nonnull align 8 dereferenceable(24) %4, i64 24, i1 false)
  call void @llvm.lifetime.end.p0(i64 24, ptr nonnull %4) #49
  br label %34

34:                                               ; preds = %_ZN7doctest6StringD2Ev.exit, %3
  ret void
}